target datalayout = "e-m:e-p270:32:32-p271:32:32-p272:64:64-i64:64-i128:128-f80:128-n8:16:32:64-S128"
target triple = "x86_64-pc-linux-gnu"

%"class.vcg::Color4" = type { %"class.vcg::Point4" }
%"class.vcg::Point4" = type { [4 x i8] }
%class.EditPaintPlugin = type { %class.QObject, %class.EditTool, [16 x double], [16 x double], [4 x i32], ptr, ptr, ptr, ptr, ptr, %"class.std::vector.16", %"class.vcg::Point3", %"class.std::vector.21", %"class.std::vector.21", %"class.std::vector.21", %"class.std::vector.21", i32, i32, %"struct.EditPaintPlugin::InputEvent", %"struct.EditPaintPlugin::InputEvent", %"struct.EditPaintPlugin::Brush", %class.QHash, %"class.vcg::Color4", ptr, ptr, %class.QPoint, %class.QPoint, %class.QPoint, i32, i32, float, %class.QHash.26, %class.QPoint, %class.QHash.28 }
%class.QObject = type { ptr, %class.QScopedPointer }
%class.QScopedPointer = type { ptr }
%class.EditTool = type { %class.MeshLabPluginLogger }
%class.MeshLabPluginLogger = type { ptr, ptr }
%"class.std::vector.16" = type { %"struct.std::_Vector_base.17" }
%"struct.std::_Vector_base.17" = type { %"struct.std::_Vector_base<std::pair<CVertexO *, EditPaintPlugin::PickingData>, std::allocator<std::pair<CVertexO *, EditPaintPlugin::PickingData>>>::_Vector_impl" }
%"struct.std::_Vector_base<std::pair<CVertexO *, EditPaintPlugin::PickingData>, std::allocator<std::pair<CVertexO *, EditPaintPlugin::PickingData>>>::_Vector_impl" = type { %"struct.std::_Vector_base<std::pair<CVertexO *, EditPaintPlugin::PickingData>, std::allocator<std::pair<CVertexO *, EditPaintPlugin::PickingData>>>::_Vector_impl_data" }
%"struct.std::_Vector_base<std::pair<CVertexO *, EditPaintPlugin::PickingData>, std::allocator<std::pair<CVertexO *, EditPaintPlugin::PickingData>>>::_Vector_impl_data" = type { ptr, ptr, ptr }
%"class.vcg::Point3" = type { [3 x float] }
%"class.std::vector.21" = type { %"struct.std::_Vector_base.22" }
%"struct.std::_Vector_base.22" = type { %"struct.std::_Vector_base<QPointF, std::allocator<QPointF>>::_Vector_impl" }
%"struct.std::_Vector_base<QPointF, std::allocator<QPointF>>::_Vector_impl" = type { %"struct.std::_Vector_base<QPointF, std::allocator<QPointF>>::_Vector_impl_data" }
%"struct.std::_Vector_base<QPointF, std::allocator<QPointF>>::_Vector_impl_data" = type { ptr, ptr, ptr }
%"struct.EditPaintPlugin::InputEvent" = type <{ i32, i32, %class.QPoint, %class.QPoint, %class.QFlags, [4 x i8], double, i8, i8, [6 x i8] }>
%class.QFlags = type { i32 }
%"struct.EditPaintPlugin::Brush" = type { i32, i32, i32, float, i8, i8, i8 }
%class.QHash = type { %union.anon }
%union.anon = type { ptr }
%class.QHash.26 = type { %union.anon.27 }
%union.anon.27 = type { ptr }
%class.QPoint = type { i32, i32 }
%class.QHash.28 = type { %union.anon.29 }
%union.anon.29 = type { ptr }
%class.QEvent = type <{ ptr, ptr, i16, i16, [4 x i8] }>
%class.QFlags.196 = type { i32 }
%class.QPaintDevice = type { ptr, i16, ptr }
%class.QRect = type { i32, i32, i32, i32 }
%class.QWidget = type { %class.QObject, %class.QPaintDevice, ptr }
%class.QWidgetData = type { i64, i32, %class.QFlags.196, i32, %class.QRect, [4 x i8], %class.QPalette, %class.QFont, %class.QRect }
%class.QPalette = type <{ ptr, %union.anon.215, [4 x i8] }>
%union.anon.215 = type { %"struct.QPalette::Data" }
%"struct.QPalette::Data" = type { i32 }
%class.QFont = type <{ %class.QExplicitlySharedDataPointer, i32, [4 x i8] }>
%class.QExplicitlySharedDataPointer = type { ptr }
%class.QMouseEvent = type <{ %class.QInputEvent, %class.QPointF, %class.QPointF, %class.QPointF, i32, %class.QFlags.249, i32, %class.QVector2D, [4 x i8] }>
%class.QInputEvent = type { %class.QEvent.base, %class.QFlags, i64 }
%class.QEvent.base = type <{ ptr, ptr, i16, i16 }>
%class.QPointF = type { double, double }
%class.QFlags.249 = type { i32 }
%class.QVector2D = type { [2 x float] }

; Function Attrs: mustprogress nounwind uwtable
define linkonce_odr noundef i32 @_ZNK5QRect6heightEv(ptr noundef nonnull align 4 dereferenceable(16) %0) #4 comdat align 2 {
  %2 = alloca ptr, align 8
  store ptr %0, ptr %2, align 8
  %3 = load ptr, ptr %2, align 8
  %4 = getelementptr inbounds %class.QRect, ptr %3, i32 0, i32 3
  %5 = load i32, ptr %4, align 4
  %6 = getelementptr inbounds %class.QRect, ptr %3, i32 0, i32 1
  %7 = load i32, ptr %6, align 4
  %8 = sub nsw i32 %5, %7
  %9 = add nsw i32 %8, 1
  ret i32 %9
}

; Function Attrs: mustprogress nounwind uwtable
define linkonce_odr noundef i32 @_Z6qRoundd(double noundef %0) #4 comdat {
  %2 = alloca double, align 8
  store double %0, ptr %2, align 8
  %3 = load double, ptr %2, align 8
  %4 = fcmp oge double %3, 0.000000e+00
  br i1 %4, label %5, label %9

5:                                                ; preds = %1
  %6 = load double, ptr %2, align 8
  %7 = fadd double %6, 5.000000e-01
  %8 = fptosi double %7 to i32
  br label %22

9:                                                ; preds = %1
  %10 = load double, ptr %2, align 8
  %11 = load double, ptr %2, align 8
  %12 = fsub double %11, 1.000000e+00
  %13 = fptosi double %12 to i32
  %14 = sitofp i32 %13 to double
  %15 = fsub double %10, %14
  %16 = fadd double %15, 5.000000e-01
  %17 = fptosi double %16 to i32
  %18 = load double, ptr %2, align 8
  %19 = fsub double %18, 1.000000e+00
  %20 = fptosi double %19 to i32
  %21 = add nsw i32 %17, %20
  br label %22

22:                                               ; preds = %9, %5
  %23 = phi i32 [ %8, %5 ], [ %21, %9 ]
  ret i32 %23
}

; Function Attrs: mustprogress nounwind uwtable
define linkonce_odr void @_ZN6QPointC2Eii(ptr noundef nonnull align 4 dereferenceable(8) %0, i32 noundef %1, i32 noundef %2) unnamed_addr #4 comdat align 2 {
  %4 = alloca ptr, align 8
  %5 = alloca i32, align 4
  %6 = alloca i32, align 4
  store ptr %0, ptr %4, align 8
  store i32 %1, ptr %5, align 4
  store i32 %2, ptr %6, align 4
  %7 = load ptr, ptr %4, align 8
  %8 = getelementptr inbounds %class.QPoint, ptr %7, i32 0, i32 0
  %9 = load i32, ptr %5, align 4
  store i32 %9, ptr %8, align 4
  %10 = getelementptr inbounds %class.QPoint, ptr %7, i32 0, i32 1
  %11 = load i32, ptr %6, align 4
  store i32 %11, ptr %10, align 4
  ret void
}

; Function Attrs: mustprogress nounwind uwtable
define linkonce_odr noundef i32 @_ZNK6QPoint1yEv(ptr noundef nonnull align 4 dereferenceable(8) %0) #4 comdat align 2 {
  %2 = alloca ptr, align 8
  store ptr %0, ptr %2, align 8
  %3 = load ptr, ptr %2, align 8
  %4 = getelementptr inbounds %class.QPoint, ptr %3, i32 0, i32 1
  %5 = load i32, ptr %4, align 4
  ret i32 %5
}

; Function Attrs: mustprogress nounwind uwtable
define linkonce_odr noundef i32 @_ZNK7QWidget6heightEv(ptr noundef nonnull align 8 dereferenceable(48) %0) #4 comdat align 2 {
  %2 = alloca ptr, align 8
  store ptr %0, ptr %2, align 8
  %3 = load ptr, ptr %2, align 8
  %4 = getelementptr inbounds %class.QWidget, ptr %3, i32 0, i32 2
  %5 = load ptr, ptr %4, align 8
  %6 = getelementptr inbounds %class.QWidgetData, ptr %5, i32 0, i32 4
  %7 = call noundef i32 @_ZNK5QRect6heightEv(ptr noundef nonnull align 4 dereferenceable(16) %6) #3
  ret i32 %7
}

; Function Attrs: mustprogress nounwind uwtable
define linkonce_odr noundef i32 @_ZNK6QPoint1xEv(ptr noundef nonnull align 4 dereferenceable(8) %0) #4 comdat align 2 {
  %2 = alloca ptr, align 8
  store ptr %0, ptr %2, align 8
  %3 = load ptr, ptr %2, align 8
  %4 = getelementptr inbounds %class.QPoint, ptr %3, i32 0, i32 0
  %5 = load i32, ptr %4, align 4
  ret i32 %5
}

; Function Attrs: mustprogress uwtable
define linkonce_odr i64 @_ZNK7QPointF7toPointEv(ptr noundef nonnull align 8 dereferenceable(16) %0) #5 comdat align 2 {
  %2 = alloca %class.QPoint, align 4
  %3 = alloca ptr, align 8
  store ptr %0, ptr %3, align 8
  %4 = load ptr, ptr %3, align 8
  %5 = getelementptr inbounds %class.QPointF, ptr %4, i32 0, i32 0
  %6 = load double, ptr %5, align 8
  %7 = call noundef i32 @_Z6qRoundd(double noundef %6)
  %8 = getelementptr inbounds %class.QPointF, ptr %4, i32 0, i32 1
  %9 = load double, ptr %8, align 8
  %10 = call noundef i32 @_Z6qRoundd(double noundef %9)
  call void @_ZN6QPointC2Eii(ptr noundef nonnull align 4 dereferenceable(8) %2, i32 noundef %7, i32 noundef %10)
  %11 = load i64, ptr %2, align 4
  ret i64 %11
}

; Function Attrs: mustprogress uwtable
define linkonce_odr void @_ZN15EditPaintPlugin14pushInputEventEN6QEvent4TypeE6QPoint6QFlagsIN2Qt16KeyboardModifierEEdNS4_11MouseButtonEP6GLArea(ptr noundef nonnull align 8 dereferenceable(704) %0, i32 noundef %1, i64 %2, i32 %3, double noundef %4, i32 noundef %5, ptr noundef %6) #5 comdat align 2 {
  %8 = alloca %class.QPoint, align 4
  %9 = alloca %class.QFlags, align 4
  %10 = alloca ptr, align 8
  %11 = alloca i32, align 4
  %12 = alloca double, align 8
  %13 = alloca i32, align 4
  %14 = alloca ptr, align 8
  %15 = alloca %class.QPoint, align 4
  store i64 %2, ptr %8, align 4
  %16 = getelementptr inbounds %class.QFlags, ptr %9, i32 0, i32 0
  store i32 %3, ptr %16, align 4
  store ptr %0, ptr %10, align 8
  store i32 %1, ptr %11, align 4
  store double %4, ptr %12, align 8
  store i32 %5, ptr %13, align 4
  store ptr %6, ptr %14, align 8
  %17 = load ptr, ptr %10, align 8
  %18 = getelementptr inbounds %class.EditPaintPlugin, ptr %17, i32 0, i32 18
  %19 = getelementptr inbounds %"struct.EditPaintPlugin::InputEvent", ptr %18, i32 0, i32 7
  %20 = load i8, ptr %19, align 8
  %21 = trunc i8 %20 to i1
  br i1 %21, label %22, label %25

22:                                               ; preds = %7
  %23 = getelementptr inbounds %class.EditPaintPlugin, ptr %17, i32 0, i32 18
  %24 = getelementptr inbounds %class.EditPaintPlugin, ptr %17, i32 0, i32 19
  call void @llvm.memcpy.p0.p0.i64(ptr align 8 %24, ptr align 8 %23, i64 42, i1 false)
  br label %25

25:                                               ; preds = %22, %7
  %26 = load i32, ptr %11, align 4
  %27 = getelementptr inbounds %class.EditPaintPlugin, ptr %17, i32 0, i32 18
  %28 = getelementptr inbounds %"struct.EditPaintPlugin::InputEvent", ptr %27, i32 0, i32 1
  store i32 %26, ptr %28, align 4
  %29 = getelementptr inbounds %class.EditPaintPlugin, ptr %17, i32 0, i32 18
  %30 = getelementptr inbounds %"struct.EditPaintPlugin::InputEvent", ptr %29, i32 0, i32 2
  call void @llvm.memcpy.p0.p0.i64(ptr align 8 %30, ptr align 4 %8, i64 8, i1 false)
  %31 = call noundef i32 @_ZNK6QPoint1xEv(ptr noundef nonnull align 4 dereferenceable(8) %8)
  %32 = load ptr, ptr %14, align 8
  %33 = call noundef i32 @_ZNK7QWidget6heightEv(ptr noundef nonnull align 8 dereferenceable(48) %32)
  %34 = call noundef i32 @_ZNK6QPoint1yEv(ptr noundef nonnull align 4 dereferenceable(8) %8)
  %35 = sub nsw i32 %33, %34
  call void @_ZN6QPointC2Eii(ptr noundef nonnull align 4 dereferenceable(8) %15, i32 noundef %31, i32 noundef %35)
  %36 = getelementptr inbounds %class.EditPaintPlugin, ptr %17, i32 0, i32 18
  %37 = getelementptr inbounds %"struct.EditPaintPlugin::InputEvent", ptr %36, i32 0, i32 3
  call void @llvm.memcpy.p0.p0.i64(ptr align 8 %37, ptr align 4 %15, i64 8, i1 false)
  %38 = getelementptr inbounds %class.EditPaintPlugin, ptr %17, i32 0, i32 18
  %39 = getelementptr inbounds %"struct.EditPaintPlugin::InputEvent", ptr %38, i32 0, i32 4
  call void @llvm.memcpy.p0.p0.i64(ptr align 8 %39, ptr align 4 %9, i64 4, i1 false)
  %40 = load i32, ptr %13, align 4
  %41 = getelementptr inbounds %class.EditPaintPlugin, ptr %17, i32 0, i32 18
  %42 = getelementptr inbounds %"struct.EditPaintPlugin::InputEvent", ptr %41, i32 0, i32 0
  store i32 %40, ptr %42, align 8
  %43 = load double, ptr %12, align 8
  %44 = getelementptr inbounds %class.EditPaintPlugin, ptr %17, i32 0, i32 18
  %45 = getelementptr inbounds %"struct.EditPaintPlugin::InputEvent", ptr %44, i32 0, i32 6
  store double %43, ptr %45, align 8
  %46 = getelementptr inbounds %class.EditPaintPlugin, ptr %17, i32 0, i32 18
  %47 = getelementptr inbounds %"struct.EditPaintPlugin::InputEvent", ptr %46, i32 0, i32 7
  store i8 0, ptr %47, align 8
  %48 = getelementptr inbounds %class.EditPaintPlugin, ptr %17, i32 0, i32 18
  %49 = getelementptr inbounds %"struct.EditPaintPlugin::InputEvent", ptr %48, i32 0, i32 8
  store i8 1, ptr %49, align 1
  ret void
}

; Function Attrs: mustprogress nounwind uwtable
define linkonce_odr i32 @_ZNK11QInputEvent9modifiersEv(ptr noundef nonnull align 8 dereferenceable(32) %0) #4 comdat align 2 {
  %2 = alloca %class.QFlags, align 4
  %3 = alloca ptr, align 8
  store ptr %0, ptr %3, align 8
  %4 = load ptr, ptr %3, align 8
  %5 = getelementptr inbounds %class.QInputEvent, ptr %4, i32 0, i32 1
  call void @llvm.memcpy.p0.p0.i64(ptr align 4 %2, ptr align 4 %5, i64 4, i1 false)
  %6 = getelementptr inbounds %class.QFlags, ptr %2, i32 0, i32 0
  %7 = load i32, ptr %6, align 4
  ret i32 %7
}

; Function Attrs: mustprogress uwtable
define linkonce_odr i64 @_ZNK11QMouseEvent3posEv(ptr noundef nonnull align 8 dereferenceable(100) %0) #5 comdat align 2 {
  %2 = alloca %class.QPoint, align 4
  %3 = alloca ptr, align 8
  store ptr %0, ptr %3, align 8
  %4 = load ptr, ptr %3, align 8
  %5 = getelementptr inbounds %class.QMouseEvent, ptr %4, i32 0, i32 1
  %6 = call i64 @_ZNK7QPointF7toPointEv(ptr noundef nonnull align 8 dereferenceable(16) %5)
  store i64 %6, ptr %2, align 4
  %7 = load i64, ptr %2, align 4
  ret i64 %7
}

; Function Attrs: mustprogress nounwind uwtable
define linkonce_odr noundef i32 @_ZNK6QEvent4typeEv(ptr noundef nonnull align 8 dereferenceable(20) %0) #4 comdat align 2 {
  %2 = alloca ptr, align 8
  store ptr %0, ptr %2, align 8
  %3 = load ptr, ptr %2, align 8
  %4 = getelementptr inbounds %class.QEvent, ptr %3, i32 0, i32 2
  %5 = load i16, ptr %4, align 8
  %6 = zext i16 %5 to i32
  ret i32 %6
}

; Function Attrs: mustprogress uwtable
define void @_ZN15EditPaintPlugin14mouseMoveEventEP11QMouseEventR9MeshModelP6GLArea(ptr noundef nonnull align 8 dereferenceable(704) %0, ptr noundef %1, ptr noundef nonnull align 8 dereferenceable(1288) %2, ptr noundef %3) unnamed_addr #5 align 2 {
  %5 = alloca ptr, align 8
  %6 = alloca ptr, align 8
  %7 = alloca ptr, align 8
  %8 = alloca ptr, align 8
  %9 = alloca %class.QPoint, align 4
  %10 = alloca %class.QFlags, align 4
  store ptr %0, ptr %5, align 8
  store ptr %1, ptr %6, align 8
  store ptr %2, ptr %7, align 8
  store ptr %3, ptr %8, align 8
  %11 = load ptr, ptr %5, align 8
  %12 = load ptr, ptr %8, align 8
  %13 = icmp eq ptr %12, null
  br i1 %13, label %14, label %15

14:                                               ; preds = %4
  br label %34

15:                                               ; preds = %4
  %16 = load ptr, ptr %6, align 8
  %17 = call noundef i32 @_ZNK6QEvent4typeEv(ptr noundef nonnull align 8 dereferenceable(20) %16)
  %18 = load ptr, ptr %6, align 8
  %19 = call i64 @_ZNK11QMouseEvent3posEv(ptr noundef nonnull align 8 dereferenceable(100) %18)
  store i64 %19, ptr %9, align 4
  %20 = load ptr, ptr %6, align 8
  %21 = call i32 @_ZNK11QInputEvent9modifiersEv(ptr noundef nonnull align 8 dereferenceable(32) %20)
  %22 = getelementptr inbounds %class.QFlags, ptr %10, i32 0, i32 0
  store i32 %21, ptr %22, align 4
  %23 = getelementptr inbounds %class.EditPaintPlugin, ptr %11, i32 0, i32 18
  %24 = getelementptr inbounds %"struct.EditPaintPlugin::InputEvent", ptr %23, i32 0, i32 6
  %25 = load double, ptr %24, align 8
  %26 = getelementptr inbounds %class.EditPaintPlugin, ptr %11, i32 0, i32 18
  %27 = getelementptr inbounds %"struct.EditPaintPlugin::InputEvent", ptr %26, i32 0, i32 0
  %28 = load i32, ptr %27, align 8
  %29 = load ptr, ptr %8, align 8
  %30 = load i64, ptr %9, align 4
  %31 = getelementptr inbounds %class.QFlags, ptr %10, i32 0, i32 0
  %32 = load i32, ptr %31, align 4
  call void @_ZN15EditPaintPlugin14pushInputEventEN6QEvent4TypeE6QPoint6QFlagsIN2Qt16KeyboardModifierEEdNS4_11MouseButtonEP6GLArea(ptr noundef nonnull align 8 dereferenceable(704) %11, i32 noundef %17, i64 %30, i32 %32, double noundef %25, i32 noundef %28, ptr noundef %29)
  %33 = load ptr, ptr %8, align 8
  call void @_ZN7QWidget6updateEv(ptr noundef nonnull align 8 dereferenceable(48) %33)
  br label %34

34:                                               ; preds = %15, %14
  ret void
}

; Function Attrs: uwtable
define void @_ZThn16_N15EditPaintPlugin14mouseMoveEventEP11QMouseEventR9MeshModelP6GLArea(ptr noundef %0, ptr noundef %1, ptr noundef nonnull align 8 dereferenceable(1288) %2, ptr noundef %3) unnamed_addr #0 align 2 {
  %5 = alloca ptr, align 8
  %6 = alloca ptr, align 8
  %7 = alloca ptr, align 8
  %8 = alloca ptr, align 8
  store ptr %0, ptr %5, align 8
  store ptr %1, ptr %6, align 8
  store ptr %2, ptr %7, align 8
  store ptr %3, ptr %8, align 8
  %9 = load ptr, ptr %5, align 8
  %10 = getelementptr inbounds i8, ptr %9, i64 -16
  %11 = load ptr, ptr %6, align 8
  %12 = load ptr, ptr %7, align 8
  %13 = load ptr, ptr %8, align 8
  tail call void @_ZN15EditPaintPlugin14mouseMoveEventEP11QMouseEventR9MeshModelP6GLArea(ptr noundef nonnull align 8 dereferenceable(704) %10, ptr noundef %11, ptr noundef nonnull align 8 dereferenceable(1288) %12, ptr noundef %13)
  ret void
}