; Function Attrs: uwtable
define void @_ZThn16_N15EditPaintPlugin14mouseMoveEventEP11QMouseEventR9MeshModelP6GLArea(ptr nocapture noundef %0, ptr nocapture noundef readonly %1, ptr nocapture noundef nonnull readnone align 8 dereferenceable(1288) %2, ptr noundef %3) unnamed_addr #12 align 2 {
  %5 = icmp eq ptr %3, null
  br i1 %5, label %_ZN15EditPaintPlugin14mouseMoveEventEP11QMouseEventR9MeshModelP6GLArea.exit, label %6

6:                                                ; preds = %4
  %7 = getelementptr inbounds i8, ptr %1, i64 16
  %8 = load i16, ptr %7, align 8
  %9 = zext i16 %8 to i32
  %10 = getelementptr inbounds i8, ptr %1, i64 32
  %11 = load double, ptr %10, align 8
  %12 = fcmp ult double %11, 0.000000e+00
  br i1 %12, label %16, label %13

13:                                               ; preds = %6
  %14 = fadd double %11, 5.000000e-01
  %15 = fptosi double %14 to i32
  br label %_Z6qRoundd.exit.i.i.i

16:                                               ; preds = %6
  %17 = fadd double %11, -1.000000e+00
  %18 = fptosi double %17 to i32
  %19 = sitofp i32 %18 to double
  %20 = fsub double %11, %19
  %21 = fadd double %20, 5.000000e-01
  %22 = fptosi double %21 to i32
  %23 = add nsw i32 %22, %18
  br label %_Z6qRoundd.exit.i.i.i

_Z6qRoundd.exit.i.i.i:                            ; preds = %16, %13
  %24 = phi i32 [ %15, %13 ], [ %23, %16 ]
  %25 = getelementptr inbounds i8, ptr %1, i64 40
  %26 = load double, ptr %25, align 8
  %27 = fcmp ult double %26, 0.000000e+00
  br i1 %27, label %31, label %28

28:                                               ; preds = %_Z6qRoundd.exit.i.i.i
  %29 = fadd double %26, 5.000000e-01
  %30 = fptosi double %29 to i32
  br label %_ZNK11QMouseEvent3posEv.exit.i

31:                                               ; preds = %_Z6qRoundd.exit.i.i.i
  %32 = fadd double %26, -1.000000e+00
  %33 = fptosi double %32 to i32
  %34 = sitofp i32 %33 to double
  %35 = fsub double %26, %34
  %36 = fadd double %35, 5.000000e-01
  %37 = fptosi double %36 to i32
  %38 = add nsw i32 %37, %33
  br label %_ZNK11QMouseEvent3posEv.exit.i

_ZNK11QMouseEvent3posEv.exit.i:                   ; preds = %31, %28
  %39 = phi i32 [ %30, %28 ], [ %38, %31 ]
  %.sroa.2.0.insert.ext.i.i.i = zext i32 %39 to i64
  %.sroa.2.0.insert.shift.i.i.i = shl nuw i64 %.sroa.2.0.insert.ext.i.i.i, 32
  %.sroa.0.0.insert.ext.i.i.i = zext i32 %24 to i64
  %.sroa.0.0.insert.insert.i.i.i = or disjoint i64 %.sroa.2.0.insert.shift.i.i.i, %.sroa.0.0.insert.ext.i.i.i
  %40 = getelementptr inbounds i8, ptr %1, i64 20
  %.sroa.0.0.copyload.i.i = load i32, ptr %40, align 4
  %41 = getelementptr inbounds i8, ptr %0, i64 512
  %42 = load i8, ptr %41, align 8
  %43 = and i8 %42, 1
  %.not.i.i = icmp eq i8 %43, 0
  br i1 %.not.i.i, label %_ZN15EditPaintPlugin14pushInputEventEN6QEvent4TypeE6QPoint6QFlagsIN2Qt16KeyboardModifierEEdNS4_11MouseButtonEP6GLArea.exit.i, label %44

44:                                               ; preds = %_ZNK11QMouseEvent3posEv.exit.i
  %45 = getelementptr inbounds i8, ptr %0, i64 472
  %46 = getelementptr inbounds i8, ptr %0, i64 520
  tail call void @llvm.memcpy.p0.p0.i64(ptr noundef nonnull align 8 dereferenceable(42) %46, ptr noundef nonnull align 8 dereferenceable(42) %45, i64 42, i1 false)
  br label %_ZN15EditPaintPlugin14pushInputEventEN6QEvent4TypeE6QPoint6QFlagsIN2Qt16KeyboardModifierEEdNS4_11MouseButtonEP6GLArea.exit.i

_ZN15EditPaintPlugin14pushInputEventEN6QEvent4TypeE6QPoint6QFlagsIN2Qt16KeyboardModifierEEdNS4_11MouseButtonEP6GLArea.exit.i: ; preds = %44, %_ZNK11QMouseEvent3posEv.exit.i
  %47 = getelementptr inbounds i8, ptr %0, i64 476
  store i32 %9, ptr %47, align 4
  %48 = getelementptr inbounds i8, ptr %0, i64 480
  store i64 %.sroa.0.0.insert.insert.i.i.i, ptr %48, align 8
  %49 = getelementptr inbounds i8, ptr %3, i64 40
  %50 = load ptr, ptr %49, align 8
  %51 = getelementptr inbounds i8, ptr %50, i64 32
  %52 = load i32, ptr %51, align 4
  %53 = getelementptr inbounds i8, ptr %50, i64 24
  %54 = load i32, ptr %53, align 4
  %55 = add i32 %52, 1
  %56 = add i32 %39, %54
  %57 = sub i32 %55, %56
  %58 = getelementptr inbounds i8, ptr %0, i64 488
  %.sroa.2.0.insert.ext.i.i = zext i32 %57 to i64
  %.sroa.2.0.insert.shift.i.i = shl nuw i64 %.sroa.2.0.insert.ext.i.i, 32
  %.sroa.0.0.insert.insert.i.i = or disjoint i64 %.sroa.2.0.insert.shift.i.i, %.sroa.0.0.insert.ext.i.i.i
  store i64 %.sroa.0.0.insert.insert.i.i, ptr %58, align 8
  %59 = getelementptr inbounds i8, ptr %0, i64 496
  store i32 %.sroa.0.0.copyload.i.i, ptr %59, align 8
  store i8 0, ptr %41, align 8
  %60 = getelementptr inbounds i8, ptr %0, i64 513
  store i8 1, ptr %60, align 1
  tail call void @_ZN7QWidget6updateEv(ptr noundef nonnull align 8 dereferenceable(48) %3)
  br label %_ZN15EditPaintPlugin14mouseMoveEventEP11QMouseEventR9MeshModelP6GLArea.exit

_ZN15EditPaintPlugin14mouseMoveEventEP11QMouseEventR9MeshModelP6GLArea.exit: ; preds = %4, %_ZN15EditPaintPlugin14pushInputEventEN6QEvent4TypeE6QPoint6QFlagsIN2Qt16KeyboardModifierEEdNS4_11MouseButtonEP6GLArea.exit.i
  ret void
}